Certificate:
    Data:
        Version: 3 (0x2)
        Serial Number: 11468017233760057451 (0x9f2694e9f853786b)
    Signature Algorithm: sha1WithRSAEncryption
        Issuer: C=CA, ST=Ontario, O=Sprymix Inc., CN=Sprymix Inc. CA/emailAddress=infra@sprymix.com
        Validity
            Not Before: Dec 10 19:50:36 2013 GMT
            Not After : Dec  8 19:50:36 2023 GMT
        Subject: C=CA, ST=Ontario, O=Sprymix Inc., CN=Sprymix Inc. CA/emailAddress=infra@sprymix.com
        Subject Public Key Info:
            Public Key Algorithm: rsaEncryption
                Public-Key: (4096 bit)
                Modulus:
                    00:c0:51:62:12:7a:85:7d:a6:57:f6:b3:84:3a:89:
                    29:db:92:c7:a2:05:c5:dd:f0:d7:c5:7f:6d:60:e9:
                    41:51:bf:8d:a4:67:ff:1a:47:64:0a:bd:bb:4c:20:
                    e4:47:15:68:f9:db:fb:71:4d:8b:f2:e3:78:71:bc:
                    8b:d2:93:da:0d:2f:f0:36:a1:ce:46:a5:6c:7c:c0:
                    76:5d:1b:57:8a:af:63:79:21:66:86:08:2b:18:2c:
                    bd:04:f4:ee:4b:ad:be:37:93:be:51:5c:b3:b2:72:
                    a4:3c:5c:fe:03:87:22:9f:62:fd:3f:01:9f:1d:4b:
                    7e:5a:16:50:65:18:a6:a9:a4:ac:7c:b4:05:7d:8f:
                    aa:68:81:ff:87:7f:5c:10:5f:80:bc:b0:c7:2f:70:
                    94:63:70:bc:ac:ee:b3:3c:5d:76:d1:4f:e0:c9:3f:
                    2c:f7:ed:ac:03:11:75:55:5a:d5:89:9f:39:87:c2:
                    b7:9c:0a:04:40:80:e6:7f:01:97:40:6f:ac:c7:e4:
                    3c:0a:41:d7:b3:90:3f:92:c0:cb:33:fc:87:93:85:
                    e5:5b:07:e8:87:39:e1:e4:7a:72:d9:89:95:11:43:
                    0a:04:35:b2:3f:2e:1c:00:3a:0f:95:57:4e:80:c1:
                    91:52:3e:fe:44:01:9b:f5:c0:2f:47:b2:d5:8f:3a:
                    6b:87:f0:ae:41:82:42:b7:2b:89:cf:2a:cb:99:5a:
                    a4:94:4a:ad:5e:94:ab:ee:09:98:ea:8d:16:56:c8:
                    fe:9f:10:d3:0c:21:18:39:79:c5:33:97:b3:b7:d9:
                    cc:4f:ec:5c:dd:31:de:d8:f9:3d:f0:81:5f:03:52:
                    20:a9:43:0b:90:e3:10:57:a1:dc:45:7a:0e:38:58:
                    5b:90:29:55:d4:67:cf:7c:f4:98:2b:28:bd:e2:24:
                    1d:24:41:05:12:82:3b:27:37:70:40:ac:7a:9c:34:
                    f0:4a:25:32:ea:52:7c:a6:fc:69:a9:ec:c5:83:e4:
                    50:ce:3d:e3:15:51:e3:b3:15:c8:46:dd:d7:b7:87:
                    86:5d:4a:c6:20:f2:c7:c2:40:a8:5b:94:89:91:52:
                    39:57:b7:9a:2f:02:1b:90:3b:ec:05:d0:f2:63:fd:
                    4f:72:c5:52:7f:c9:35:ac:a5:a3:97:2c:0b:af:c6:
                    b2:bf:7c:35:7a:35:04:73:53:43:ea:fd:12:6b:d6:
                    3e:ec:4b:54:a8:88:83:1f:71:94:10:8e:6b:95:ba:
                    57:de:a4:fe:be:43:6a:40:0f:d0:0d:73:d7:8b:f3:
                    b3:5e:cb:8f:aa:58:0a:cb:9d:76:13:f1:f3:b8:34:
                    2a:8f:18:f3:18:13:2a:af:a6:5d:e8:36:79:41:de:
                    76:dc:09
                Exponent: 65537 (0x10001)
        X509v3 extensions:
            X509v3 Subject Key Identifier: 
                C4:71:7C:1B:E2:66:D5:C3:0A:9F:EE:B6:CF:29:2D:61:E7:0B:98:0C
            X509v3 Authority Key Identifier: 
                keyid:C4:71:7C:1B:E2:66:D5:C3:0A:9F:EE:B6:CF:29:2D:61:E7:0B:98:0C

            X509v3 Basic Constraints: 
                CA:TRUE
    Signature Algorithm: sha1WithRSAEncryption
         20:e2:e9:aa:ef:84:5a:e5:d6:bd:d0:fb:e5:fd:d6:1d:6b:3f:
         a0:51:6f:b0:07:bc:1a:94:99:e8:9e:ec:f9:0b:2b:d9:4f:02:
         56:78:88:97:10:14:8a:c2:8f:87:ea:a9:72:ea:1e:58:51:91:
         0f:05:e1:d2:71:3c:2a:cd:79:c9:37:4c:75:2a:63:49:ab:3d:
         b8:01:c8:ff:f5:f3:1e:11:33:43:b4:6b:00:53:8b:f7:99:49:
         b9:ff:cf:60:97:f0:6a:a3:af:fc:49:c1:00:bd:98:bc:37:cc:
         4d:5d:d4:8b:af:7f:1f:62:e2:44:20:12:ec:b4:cd:7e:44:37:
         01:59:1e:c3:d1:cc:5a:8a:86:6f:c6:c6:1f:bc:d4:8e:30:af:
         fe:58:33:57:6e:a9:d0:5b:67:cd:2f:60:11:3b:28:61:13:5a:
         f4:c7:4c:ea:d3:75:1e:c5:ad:fb:29:e6:3a:58:9c:71:57:43:
         4b:42:bf:7c:01:97:8b:11:54:86:aa:90:c0:08:74:bf:3a:e1:
         c1:0f:a2:0b:50:5a:fe:02:f0:2c:9d:99:4f:7d:c4:cb:c4:2d:
         38:bb:fb:28:28:a8:92:0c:e3:b3:e2:42:9d:e1:37:8b:11:45:
         47:da:79:ee:c5:ed:7f:c5:2b:4c:17:f4:ee:9a:bb:1d:e2:fa:
         77:36:1c:8d:74:7a:b9:ba:45:33:83:f3:f0:8e:3b:02:c8:6b:
         71:19:39:09:11:57:b1:cc:ba:3b:c2:45:f3:08:a6:de:87:33:
         b7:fe:46:53:82:23:be:3c:07:72:a0:19:c5:b7:8f:30:ab:53:
         21:96:68:27:bc:8a:3e:89:ff:a0:b2:b8:e6:2b:46:a8:80:6c:
         55:a2:fc:0b:6f:95:14:a8:62:d4:88:e9:d6:c3:e4:6f:09:c4:
         cf:26:ff:5f:8d:0a:94:e5:50:c1:a7:ca:fb:11:4c:23:3f:18:
         0f:f8:be:1f:9b:eb:d6:36:dd:55:2a:ce:b6:b7:8f:7c:62:46:
         f1:63:f1:0b:74:1b:48:15:0b:06:70:a2:d2:13:63:8b:91:61:
         e9:43:0b:6d:4b:8a:c3:2e:1a:16:00:44:83:c7:70:96:63:47:
         f3:8b:09:ad:03:11:2c:8e:c8:b2:fe:82:cc:4c:33:5a:6c:68:
         b3:52:4d:31:ab:84:8f:92:94:15:68:96:0b:1d:59:d6:ac:66:
         50:75:36:49:18:f2:00:fa:59:61:4e:70:d2:3b:c3:3e:78:ac:
         c3:5b:5a:9f:5c:81:52:8b:9f:87:6f:c7:ec:41:a7:89:05:6e:
         1a:8b:8a:b2:bb:00:bd:0e:fe:0f:73:fb:4a:94:9b:61:77:26:
         ea:d5:51:e7:76:9c:81:0b
-----BEGIN CERTIFICATE-----
MIIFtzCCA5+gAwIBAgIJAJ8mlOn4U3hrMA0GCSqGSIb3DQEBBQUAMHIxCzAJBgNV
BAYTAkNBMRAwDgYDVQQIDAdPbnRhcmlvMRUwEwYDVQQKDAxTcHJ5bWl4IEluYy4x
GDAWBgNVBAMMD1NwcnltaXggSW5jLiBDQTEgMB4GCSqGSIb3DQEJARYRaW5mcmFA
c3ByeW1peC5jb20wHhcNMTMxMjEwMTk1MDM2WhcNMjMxMjA4MTk1MDM2WjByMQsw
CQYDVQQGEwJDQTEQMA4GA1UECAwHT250YXJpbzEVMBMGA1UECgwMU3ByeW1peCBJ
bmMuMRgwFgYDVQQDDA9TcHJ5bWl4IEluYy4gQ0ExIDAeBgkqhkiG9w0BCQEWEWlu
ZnJhQHNwcnltaXguY29tMIICIjANBgkqhkiG9w0BAQEFAAOCAg8AMIICCgKCAgEA
wFFiEnqFfaZX9rOEOokp25LHogXF3fDXxX9tYOlBUb+NpGf/GkdkCr27TCDkRxVo
+dv7cU2L8uN4cbyL0pPaDS/wNqHORqVsfMB2XRtXiq9jeSFmhggrGCy9BPTuS62+
N5O+UVyzsnKkPFz+A4cin2L9PwGfHUt+WhZQZRimqaSsfLQFfY+qaIH/h39cEF+A
vLDHL3CUY3C8rO6zPF120U/gyT8s9+2sAxF1VVrViZ85h8K3nAoEQIDmfwGXQG+s
x+Q8CkHXs5A/ksDLM/yHk4XlWwfohznh5Hpy2YmVEUMKBDWyPy4cADoPlVdOgMGR
Uj7+RAGb9cAvR7LVjzprh/CuQYJCtyuJzyrLmVqklEqtXpSr7gmY6o0WVsj+nxDT
DCEYOXnFM5ezt9nMT+xc3THe2Pk98IFfA1IgqUMLkOMQV6HcRXoOOFhbkClV1GfP
fPSYKyi94iQdJEEFEoI7JzdwQKx6nDTwSiUy6lJ8pvxpqezFg+RQzj3jFVHjsxXI
Rt3Xt4eGXUrGIPLHwkCoW5SJkVI5V7eaLwIbkDvsBdDyY/1PcsVSf8k1rKWjlywL
r8ayv3w1ejUEc1ND6v0Sa9Y+7EtUqIiDH3GUEI5rlbpX3qT+vkNqQA/QDXPXi/Oz
XsuPqlgKy512E/HzuDQqjxjzGBMqr6Zd6DZ5Qd523AkCAwEAAaNQME4wHQYDVR0O
BBYEFMRxfBviZtXDCp/uts8pLWHnC5gMMB8GA1UdIwQYMBaAFMRxfBviZtXDCp/u
ts8pLWHnC5gMMAwGA1UdEwQFMAMBAf8wDQYJKoZIhvcNAQEFBQADggIBACDi6arv
hFrl1r3Q++X91h1rP6BRb7AHvBqUmeie7PkLK9lPAlZ4iJcQFIrCj4fqqXLqHlhR
kQ8F4dJxPCrNeck3THUqY0mrPbgByP/18x4RM0O0awBTi/eZSbn/z2CX8Gqjr/xJ
wQC9mLw3zE1d1Iuvfx9i4kQgEuy0zX5ENwFZHsPRzFqKhm/Gxh+81I4wr/5YM1du
qdBbZ80vYBE7KGETWvTHTOrTdR7Frfsp5jpYnHFXQ0tCv3wBl4sRVIaqkMAIdL86
4cEPogtQWv4C8CydmU99xMvELTi7+ygoqJIM47PiQp3hN4sRRUfaee7F7X/FK0wX
9O6aux3i+nc2HI10erm6RTOD8/COOwLIa3EZOQkRV7HMujvCRfMIpt6HM7f+RlOC
I748B3KgGcW3jzCrUyGWaCe8ij6J/6CyuOYrRqiAbFWi/AtvlRSoYtSI6dbD5G8J
xM8m/1+NCpTlUMGnyvsRTCM/GA/4vh+b69Y23VUqzra3j3xiRvFj8Qt0G0gVCwZw
otITY4uRYelDC21LisMuGhYARIPHcJZjR/OLCa0DESyOyLL+gsxMM1psaLNSTTGr
hI+SlBVolgsdWdasZlB1NkkY8gD6WWFOcNI7wz54rMNbWp9cgVKLn4dvx+xBp4kF
bhqLirK7AL0O/g9z+0qUm2F3JurVUed2nIEL
-----END CERTIFICATE-----
